target datalayout = "e-m:e-p270:32:32-p271:32:32-p272:64:64-i64:64-i128:128-f80:128-n8:16:32:64-S128"
target triple = "x86_64-pc-linux-gnu"

%class.GraphKit = type <{ ptr, %class.Phase, ptr, ptr, ptr, ptr, i32, [4 x i8], ptr, ptr, i32, [4 x i8] }>
%class.Phase = type { i32, ptr }
%class.Parse = type { %class.GraphKit.base, ptr, float, float, i32, ptr, i32, ptr, ptr, i32, [4 x i8], %class.GraphKit, i8, i8, i8, i8, ptr, ptr, %class.ciBytecodeStream, ptr, i8, i8, i32 }
%class.GraphKit.base = type <{ ptr, %class.Phase, ptr, ptr, ptr, ptr, i32, [4 x i8], ptr, ptr, i32 }>
%class.ciBytecodeStream = type { ptr, ptr, ptr, ptr, ptr, ptr, ptr, ptr, i32, i32 }
%class.GrowableArrayBase = type { i32, i32 }
%class.GrowableArrayMetadata = type { i64 }
%class.RegMask = type { %union.anon, i32, i32 }
%union.anon = type { [11 x i64] }
%class.Compile = type <{ %class.Phase, i32, %class.Options, [4 x i8], ptr, i32, [4 x i8], ptr, ptr, ptr, ptr, ptr, i32, i32, i32, [4 x i8], i64, i8, i8, [2 x i8], i32, i8, i8, i8, i8, i8, i8, i8, i8, i8, [3 x i8], i32, i8, [3 x i8], [30 x i32], i8, [3 x i8], i32, i8, i8, i8, i8, i8, i8, i8, i8, i8, i8, i8, i8, i8, [3 x i8], i32, i32, [4 x i8], %class.Arena, ptr, ptr, ptr, ptr, %class.CHeapStringHolder, ptr, %class.GrowableArray, %class.GrowableArray.0, %class.GrowableArray.3, %class.GrowableArray.0, %class.GrowableArray.0, %class.GrowableArray.0, %class.GrowableArray.6, %class.GrowableArray.9, ptr, i32, i32, %class.VectorSet, %class.Arena, %class.Arena, ptr, ptr, ptr, ptr, ptr, ptr, ptr, ptr, ptr, %class.Arena, ptr, ptr, %class.CloneMap, i64, ptr, ptr, ptr, i32, i32, [64 x %"struct.Compile::AliasCacheEntry"], ptr, ptr, ptr, ptr, %class.GrowableArray, %class.GrowableArray, %class.GrowableArray, %class.GrowableArray, i32, i32, i8, [7 x i8], ptr, ptr, i32, [4 x i8], ptr, ptr, ptr, i32, i32, ptr, ptr, %class.RegMask, ptr, ptr, i32, [4 x i8], ptr, %class.TimeInstant, i32, [4 x i8] }>
%class.Options = type { i8, i8, i8, i8, i8, i8, i8, i8 }
%class.CHeapStringHolder = type { ptr }
%class.GrowableArray.3 = type { %class.GrowableArrayWithAllocator.4, %class.GrowableArrayMetadata }
%class.GrowableArrayWithAllocator.4 = type { %class.GrowableArrayView.5 }
%class.GrowableArrayView.5 = type { %class.GrowableArrayBase, ptr }
%class.GrowableArray.0 = type { %class.GrowableArrayWithAllocator.1, %class.GrowableArrayMetadata }
%class.GrowableArrayWithAllocator.1 = type { %class.GrowableArrayView.2 }
%class.GrowableArrayView.2 = type { %class.GrowableArrayBase, ptr }
%class.GrowableArray.6 = type { %class.GrowableArrayWithAllocator.7, %class.GrowableArrayMetadata }
%class.GrowableArrayWithAllocator.7 = type { %class.GrowableArrayView.8 }
%class.GrowableArrayView.8 = type { %class.GrowableArrayBase, ptr }
%class.GrowableArray.9 = type { %class.GrowableArrayWithAllocator.10, %class.GrowableArrayMetadata }
%class.GrowableArrayWithAllocator.10 = type { %class.GrowableArrayView.11 }
%class.GrowableArrayView.11 = type { %class.GrowableArrayBase, ptr }
%class.VectorSet = type { i32, ptr, i32, ptr }
%class.Arena = type { i8, i8, i64, ptr, ptr, ptr, ptr }
%class.CloneMap = type <{ i8, [7 x i8], ptr, i32, [4 x i8] }>
%"struct.Compile::AliasCacheEntry" = type { ptr, i32 }
%class.GrowableArray = type { %class.GrowableArrayWithAllocator, %class.GrowableArrayMetadata }
%class.GrowableArrayWithAllocator = type { %class.GrowableArrayView }
%class.GrowableArrayView = type { %class.GrowableArrayBase, ptr }
%class.TimeInstant = type { %class.CompositeCounterRepresentation }
%class.CompositeCounterRepresentation = type { %class.Representation }
%class.Representation = type { %class.PairRep }
%class.PairRep = type { i64, i64 }
%class.JVMState = type { ptr, i32, i32, i32, i32, i32, i32, i32, i32, i32, ptr, ptr }
%class.Node_Notes = type { ptr }

@DebugInlinedCalls = external global i8, align 1

; Function Attrs: mustprogress nounwind uwtable
define linkonce_odr hidden void @_ZN10Node_Notes8set_jvmsEP8JVMState(ptr noundef nonnull align 8 dereferenceable(8) %0, ptr noundef %1) #1 comdat align 2 {
  %3 = alloca ptr, align 8
  %4 = alloca ptr, align 8
  store ptr %0, ptr %3, align 8
  store ptr %1, ptr %4, align 8
  %5 = load ptr, ptr %3, align 8
  %6 = load ptr, ptr %4, align 8
  %7 = getelementptr inbounds %class.Node_Notes, ptr %5, i32 0, i32 0
  store ptr %6, ptr %7, align 8
  ret void
}

; Function Attrs: mustprogress nounwind uwtable
define linkonce_odr hidden void @_ZN8JVMState7set_bciEi(ptr noundef nonnull align 8 dereferenceable(64) %0, i32 noundef %1) #1 comdat align 2 {
  %3 = alloca ptr, align 8
  %4 = alloca i32, align 4
  store ptr %0, ptr %3, align 8
  store i32 %1, ptr %4, align 4
  %5 = load ptr, ptr %3, align 8
  %6 = getelementptr inbounds %class.JVMState, ptr %5, i32 0, i32 8
  %7 = load i32, ptr %6, align 4
  %8 = load i32, ptr %4, align 4
  %9 = icmp ne i32 %7, %8
  br i1 %9, label %10, label %12

10:                                               ; preds = %2
  %11 = getelementptr inbounds %class.JVMState, ptr %5, i32 0, i32 9
  store i32 -1, ptr %11, align 8
  br label %12

12:                                               ; preds = %10, %2
  %13 = load i32, ptr %4, align 4
  %14 = getelementptr inbounds %class.JVMState, ptr %5, i32 0, i32 8
  store i32 %13, ptr %14, align 4
  ret void
}

; Function Attrs: mustprogress nounwind uwtable
define linkonce_odr hidden noundef i32 @_ZNK8JVMState3bciEv(ptr noundef nonnull align 8 dereferenceable(64) %0) #1 comdat align 2 {
  %2 = alloca ptr, align 8
  store ptr %0, ptr %2, align 8
  %3 = load ptr, ptr %2, align 8
  %4 = getelementptr inbounds %class.JVMState, ptr %3, i32 0, i32 8
  %5 = load i32, ptr %4, align 4
  ret i32 %5
}

; Function Attrs: mustprogress nounwind uwtable
define linkonce_odr hidden noundef ptr @_ZN10Node_Notes4jvmsEv(ptr noundef nonnull align 8 dereferenceable(8) %0) #1 comdat align 2 {
  %2 = alloca ptr, align 8
  store ptr %0, ptr %2, align 8
  %3 = load ptr, ptr %2, align 8
  %4 = getelementptr inbounds %class.Node_Notes, ptr %3, i32 0, i32 0
  %5 = load ptr, ptr %4, align 8
  ret ptr %5
}

; Function Attrs: mustprogress nounwind uwtable
define linkonce_odr hidden noundef i32 @_ZNK5Parse5depthEv(ptr noundef nonnull align 8 dereferenceable(352) %0) #1 comdat align 2 {
  %2 = alloca ptr, align 8
  store ptr %0, ptr %2, align 8
  %3 = load ptr, ptr %2, align 8
  %4 = getelementptr inbounds %class.Parse, ptr %3, i32 0, i32 4
  %5 = load i32, ptr %4, align 8
  ret i32 %5
}

; Function Attrs: mustprogress nounwind uwtable
define linkonce_odr hidden noundef ptr @_ZNK7Compile18default_node_notesEv(ptr noundef nonnull align 8 dereferenceable(2316) %0) #1 comdat align 2 {
  %2 = alloca ptr, align 8
  store ptr %0, ptr %2, align 8
  %3 = load ptr, ptr %2, align 8
  %4 = getelementptr inbounds %class.Compile, ptr %3, i32 0, i32 84
  %5 = load ptr, ptr %4, align 8
  ret ptr %5
}

; Function Attrs: mustprogress nounwind uwtable
define linkonce_odr hidden void @_ZN8GraphKit7set_bciEi(ptr noundef nonnull align 8 dereferenceable(84) %0, i32 noundef %1) #1 comdat align 2 {
  %3 = alloca ptr, align 8
  %4 = alloca i32, align 4
  store ptr %0, ptr %3, align 8
  store i32 %1, ptr %4, align 4
  %5 = load ptr, ptr %3, align 8
  %6 = load i32, ptr %4, align 4
  %7 = getelementptr inbounds %class.GraphKit, ptr %5, i32 0, i32 6
  store i32 %6, ptr %7, align 8
  ret void
}

; Function Attrs: mustprogress nounwind uwtable
define hidden void @_ZN5Parse13set_parse_bciEi(ptr noundef nonnull align 8 dereferenceable(352) %0, i32 noundef %1) #1 align 2 {
  %3 = alloca ptr, align 8
  %4 = alloca i32, align 4
  %5 = alloca ptr, align 8
  %6 = alloca ptr, align 8
  store ptr %0, ptr %3, align 8
  store i32 %1, ptr %4, align 4
  %7 = load ptr, ptr %3, align 8
  %8 = load i32, ptr %4, align 4
  call void @_ZN8GraphKit7set_bciEi(ptr noundef nonnull align 8 dereferenceable(84) %7, i32 noundef %8)
  %9 = getelementptr inbounds i8, ptr %7, i64 8
  %10 = getelementptr inbounds %class.Phase, ptr %9, i32 0, i32 1
  %11 = load ptr, ptr %10, align 8
  %12 = call noundef ptr @_ZNK7Compile18default_node_notesEv(ptr noundef nonnull align 8 dereferenceable(2316) %11)
  store ptr %12, ptr %5, align 8
  %13 = load ptr, ptr %5, align 8
  %14 = icmp eq ptr %13, null
  br i1 %14, label %15, label %16

15:                                               ; preds = %2
  br label %43

16:                                               ; preds = %2
  %17 = load i8, ptr @DebugInlinedCalls, align 1
  %18 = trunc i8 %17 to i1
  br i1 %18, label %23, label %19

19:                                               ; preds = %16
  %20 = call noundef i32 @_ZNK5Parse5depthEv(ptr noundef nonnull align 8 dereferenceable(352) %7)
  %21 = icmp sgt i32 %20, 1
  br i1 %21, label %22, label %23

22:                                               ; preds = %19
  br label %43

23:                                               ; preds = %19, %16
  %24 = load ptr, ptr %5, align 8
  %25 = call noundef ptr @_ZN10Node_Notes4jvmsEv(ptr noundef nonnull align 8 dereferenceable(8) %24)
  store ptr %25, ptr %6, align 8
  %26 = load ptr, ptr %6, align 8
  %27 = icmp ne ptr %26, null
  br i1 %27, label %28, label %43

28:                                               ; preds = %23
  %29 = load ptr, ptr %6, align 8
  %30 = call noundef i32 @_ZNK8JVMState3bciEv(ptr noundef nonnull align 8 dereferenceable(64) %29)
  %31 = load i32, ptr %4, align 4
  %32 = icmp ne i32 %30, %31
  br i1 %32, label %33, label %43

33:                                               ; preds = %28
  %34 = load ptr, ptr %6, align 8
  %35 = getelementptr inbounds i8, ptr %7, i64 8
  %36 = getelementptr inbounds %class.Phase, ptr %35, i32 0, i32 1
  %37 = load ptr, ptr %36, align 8
  %38 = call noundef ptr @_ZNK8JVMState13clone_shallowEP7Compile(ptr noundef nonnull align 8 dereferenceable(64) %34, ptr noundef %37)
  store ptr %38, ptr %6, align 8
  %39 = load ptr, ptr %6, align 8
  %40 = load i32, ptr %4, align 4
  call void @_ZN8JVMState7set_bciEi(ptr noundef nonnull align 8 dereferenceable(64) %39, i32 noundef %40)
  %41 = load ptr, ptr %5, align 8
  %42 = load ptr, ptr %6, align 8
  call void @_ZN10Node_Notes8set_jvmsEP8JVMState(ptr noundef nonnull align 8 dereferenceable(8) %41, ptr noundef %42)
  br label %43

43:                                               ; preds = %33, %28, %23, %22, %15
  ret void
}