; Function Attrs: mustprogress nounwind uwtable
define hidden void @_ZN5Parse13set_parse_bciEi(ptr nocapture noundef nonnull align 8 dereferenceable(352) %0, i32 noundef %1) local_unnamed_addr #0 align 2 {
  %3 = getelementptr inbounds i8, ptr %0, i64 56
  store i32 %1, ptr %3, align 8
  %4 = getelementptr inbounds i8, ptr %0, i64 16
  %5 = load ptr, ptr %4, align 8
  %6 = getelementptr inbounds i8, ptr %5, i64 792
  %7 = load ptr, ptr %6, align 8
  %8 = icmp eq ptr %7, null
  br i1 %8, label %26, label %9

9:                                                ; preds = %2
  %10 = load i8, ptr @DebugInlinedCalls, align 1
  %11 = trunc i8 %10 to i1
  %12 = getelementptr inbounds i8, ptr %0, i64 104
  %13 = load i32, ptr %12, align 8
  %14 = icmp slt i32 %13, 2
  %or.cond.not = select i1 %11, i1 true, i1 %14
  br i1 %or.cond.not, label %15, label %26

15:                                               ; preds = %9
  %16 = load ptr, ptr %7, align 8
  %.not = icmp eq ptr %16, null
  br i1 %.not, label %26, label %17

17:                                               ; preds = %15
  %18 = getelementptr inbounds i8, ptr %16, i64 36
  %19 = load i32, ptr %18, align 4
  %.not13 = icmp eq i32 %19, %1
  br i1 %.not13, label %26, label %20

20:                                               ; preds = %17
  %21 = tail call noundef ptr @_ZNK8JVMState13clone_shallowEP7Compile(ptr noundef nonnull align 8 dereferenceable(64) %16, ptr noundef nonnull %5) #14
  %22 = getelementptr inbounds i8, ptr %21, i64 36
  %23 = load i32, ptr %22, align 4
  %.not.i = icmp eq i32 %23, %1
  br i1 %.not.i, label %_ZN8JVMState7set_bciEi.exit, label %24

24:                                               ; preds = %20
  %25 = getelementptr inbounds i8, ptr %21, i64 40
  store i32 -1, ptr %25, align 8
  br label %_ZN8JVMState7set_bciEi.exit

_ZN8JVMState7set_bciEi.exit:                      ; preds = %20, %24
  store i32 %1, ptr %22, align 4
  store ptr %21, ptr %7, align 8
  br label %26

26:                                               ; preds = %9, %2, %_ZN8JVMState7set_bciEi.exit, %17, %15
  ret void
}